; Function Attrs: mustprogress nofree norecurse nosync nounwind sspstrong willreturn memory(read, inaccessiblemem: none) uwtable
define hidden range(i64 0, 8193) i64 @rb_yjit_ruby2_keywords_splat_p(i64 noundef %0) local_unnamed_addr #4 {
  %2 = icmp eq i64 %0, 0
  %3 = and i64 %0, 7
  %4 = icmp ne i64 %3, 0
  %5 = or i1 %2, %4
  br i1 %5, label %rbimpl_RB_TYPE_P_fastpath.exit.thread, label %rbimpl_RB_TYPE_P_fastpath.exit

rbimpl_RB_TYPE_P_fastpath.exit:                   ; preds = %1
  %6 = inttoptr i64 %0 to ptr
  %7 = load i64, ptr %6, align 8, !tbaa !11
  %8 = and i64 %7, 31
  %9 = icmp eq i64 %8, 7
  br i1 %9, label %10, label %rbimpl_RB_TYPE_P_fastpath.exit.thread

10:                                               ; preds = %rbimpl_RB_TYPE_P_fastpath.exit
  %11 = and i64 %7, 8192
  %.not.i = icmp eq i64 %11, 0
  br i1 %.not.i, label %rb_array_len.exit, label %rb_array_len.exit.thread

rb_array_len.exit:                                ; preds = %10
  %12 = getelementptr inbounds nuw i8, ptr %6, i64 16
  %13 = load i64, ptr %12, align 8, !tbaa !14
  %14 = icmp eq i64 %13, 0
  br i1 %14, label %rbimpl_RB_TYPE_P_fastpath.exit.thread, label %20

rb_array_len.exit.thread:                         ; preds = %10
  %15 = lshr i64 %7, 15
  %16 = and i64 %15, 127
  %17 = icmp eq i64 %16, 0
  br i1 %17, label %rbimpl_RB_TYPE_P_fastpath.exit.thread, label %18

18:                                               ; preds = %rb_array_len.exit.thread
  %19 = getelementptr inbounds nuw i8, ptr %6, i64 16
  br label %RARRAY_AREF.exit

20:                                               ; preds = %rb_array_len.exit
  %21 = getelementptr inbounds nuw i8, ptr %6, i64 32
  %22 = load ptr, ptr %21, align 8, !tbaa !14
  br label %RARRAY_AREF.exit

RARRAY_AREF.exit:                                 ; preds = %18, %20
  %.in = phi i64 [ %16, %18 ], [ %13, %20 ]
  %.0.i.i = phi ptr [ %19, %18 ], [ %22, %20 ]
  %23 = getelementptr i64, ptr %.0.i.i, i64 %.in
  %24 = getelementptr i8, ptr %23, i64 -8
  %25 = load i64, ptr %24, align 8, !tbaa !15
  %26 = icmp eq i64 %25, 0
  %27 = and i64 %25, 7
  %28 = icmp ne i64 %27, 0
  %29 = or i1 %26, %28
  br i1 %29, label %rbimpl_RB_TYPE_P_fastpath.exit.thread, label %rbimpl_RB_TYPE_P_fastpath.exit10

rbimpl_RB_TYPE_P_fastpath.exit10:                 ; preds = %RARRAY_AREF.exit
  %30 = inttoptr i64 %25 to ptr
  %31 = load i64, ptr %30, align 8, !tbaa !11
  %32 = and i64 %31, 31
  %33 = icmp eq i64 %32, 8
  %34 = and i64 %31, 8192
  %spec.select = select i1 %33, i64 %34, i64 0
  br label %rbimpl_RB_TYPE_P_fastpath.exit.thread

rbimpl_RB_TYPE_P_fastpath.exit.thread:            ; preds = %rbimpl_RB_TYPE_P_fastpath.exit10, %RARRAY_AREF.exit, %1, %rb_array_len.exit.thread, %rb_array_len.exit, %rbimpl_RB_TYPE_P_fastpath.exit
  %.0 = phi i64 [ 0, %rbimpl_RB_TYPE_P_fastpath.exit ], [ 0, %rb_array_len.exit ], [ 0, %rb_array_len.exit.thread ], [ 0, %1 ], [ 0, %RARRAY_AREF.exit ], [ %spec.select, %rbimpl_RB_TYPE_P_fastpath.exit10 ]
  ret i64 %.0
}